; ModuleID = '13/1745.c'
source_filename = "13/1745.c"
target datalayout = "e-m:e-p270:32:32-p271:32:32-p272:64:64-i64:64-f80:128-n8:16:32:64-S128"
target triple = "x86_64-pc-linux-gnu"

@.str = private unnamed_addr constant [4 x i8] c"%d\0A\00", align 1
@.str.1 = private unnamed_addr constant [3 x i8] c"%d\00", align 1
@.str.2 = private unnamed_addr constant [2 x i8] c" \00", align 1

; Function Attrs: noinline nounwind uwtable
define dso_local i32 @main() #0 {
  %1 = alloca i32, align 4
  %2 = alloca i32, align 4
  %3 = alloca i32*, align 8
  %4 = alloca i32*, align 8
  %5 = alloca i32, align 4
  %6 = alloca i32, align 4
  %7 = alloca i32, align 4
  store i32 0, i32* %1, align 4
  store i32 0, i32* %7, align 4
  %8 = call i32 (i8*, ...) @__isoc99_scanf(i8* getelementptr inbounds ([4 x i8], [4 x i8]* @.str, i64 0, i64 0), i32* %2)
  %9 = load i32, i32* %2, align 4
  %10 = sext i32 %9 to i64
  %11 = mul i64 %10, 4
  %12 = call noalias i8* @malloc(i64 %11) #3
  %13 = bitcast i8* %12 to i32*
  store i32* %13, i32** %3, align 8
  %14 = load i32, i32* %2, align 4
  %15 = sext i32 %14 to i64
  %16 = mul i64 %15, 4
  %17 = call noalias i8* @malloc(i64 %16) #3
  %18 = bitcast i8* %17 to i32*
  store i32* %18, i32** %4, align 8
  store i32 0, i32* %5, align 4
  br label %19

19:                                               ; preds = %33, %0
  %20 = load i32, i32* %5, align 4
  %21 = load i32, i32* %2, align 4
  %22 = icmp slt i32 %20, %21
  br i1 %22, label %23, label %36

23:                                               ; preds = %19
  %24 = load i32*, i32** %3, align 8
  %25 = load i32, i32* %5, align 4
  %26 = sext i32 %25 to i64
  %27 = getelementptr inbounds i32, i32* %24, i64 %26
  %28 = call i32 (i8*, ...) @__isoc99_scanf(i8* getelementptr inbounds ([3 x i8], [3 x i8]* @.str.1, i64 0, i64 0), i32* %27)
  %29 = load i32*, i32** %4, align 8
  %30 = load i32, i32* %5, align 4
  %31 = sext i32 %30 to i64
  %32 = getelementptr inbounds i32, i32* %29, i64 %31
  store i32 0, i32* %32, align 4
  br label %33

33:                                               ; preds = %23
  %34 = load i32, i32* %5, align 4
  %35 = add nsw i32 %34, 1
  store i32 %35, i32* %5, align 4
  br label %19

36:                                               ; preds = %19
  %37 = load i32, i32* %2, align 4
  %38 = sub nsw i32 %37, 1
  store i32 %38, i32* %5, align 4
  br label %39

39:                                               ; preds = %76, %36
  %40 = load i32, i32* %5, align 4
  %41 = icmp sge i32 %40, 0
  br i1 %41, label %42, label %79

42:                                               ; preds = %39
  %43 = load i32, i32* %5, align 4
  %44 = sub nsw i32 %43, 1
  store i32 %44, i32* %6, align 4
  br label %45

45:                                               ; preds = %72, %42
  %46 = load i32, i32* %6, align 4
  %47 = icmp sge i32 %46, 0
  br i1 %47, label %48, label %75

48:                                               ; preds = %45
  %49 = load i32*, i32** %3, align 8
  %50 = load i32, i32* %5, align 4
  %51 = sext i32 %50 to i64
  %52 = getelementptr inbounds i32, i32* %49, i64 %51
  %53 = load i32, i32* %52, align 4
  %54 = load i32*, i32** %3, align 8
  %55 = load i32, i32* %6, align 4
  %56 = sext i32 %55 to i64
  %57 = getelementptr inbounds i32, i32* %54, i64 %56
  %58 = load i32, i32* %57, align 4
  %59 = icmp eq i32 %53, %58
  br i1 %59, label %60, label %71

60:                                               ; preds = %48
  %61 = load i32*, i32** %4, align 8
  %62 = load i32, i32* %5, align 4
  %63 = sext i32 %62 to i64
  %64 = getelementptr inbounds i32, i32* %61, i64 %63
  %65 = load i32, i32* %64, align 4
  %66 = add nsw i32 %65, 1
  %67 = load i32*, i32** %4, align 8
  %68 = load i32, i32* %5, align 4
  %69 = sext i32 %68 to i64
  %70 = getelementptr inbounds i32, i32* %67, i64 %69
  store i32 %66, i32* %70, align 4
  br label %71

71:                                               ; preds = %60, %48
  br label %72

72:                                               ; preds = %71
  %73 = load i32, i32* %6, align 4
  %74 = add nsw i32 %73, -1
  store i32 %74, i32* %6, align 4
  br label %45

75:                                               ; preds = %45
  br label %76

76:                                               ; preds = %75
  %77 = load i32, i32* %5, align 4
  %78 = add nsw i32 %77, -1
  store i32 %78, i32* %5, align 4
  br label %39

79:                                               ; preds = %39
  store i32 0, i32* %5, align 4
  br label %80

80:                                               ; preds = %124, %79
  %81 = load i32, i32* %5, align 4
  %82 = load i32, i32* %2, align 4
  %83 = icmp slt i32 %81, %82
  br i1 %83, label %84, label %127

84:                                               ; preds = %80
  %85 = load i32, i32* %5, align 4
  store i32 %85, i32* %6, align 4
  br label %86

86:                                               ; preds = %101, %84
  %87 = load i32, i32* %6, align 4
  %88 = load i32, i32* %2, align 4
  %89 = icmp slt i32 %87, %88
  br i1 %89, label %90, label %104

90:                                               ; preds = %86
  %91 = load i32*, i32** %4, align 8
  %92 = load i32, i32* %6, align 4
  %93 = sext i32 %92 to i64
  %94 = getelementptr inbounds i32, i32* %91, i64 %93
  %95 = load i32, i32* %94, align 4
  %96 = icmp eq i32 %95, 0
  br i1 %96, label %97, label %100

97:                                               ; preds = %90
  %98 = load i32, i32* %7, align 4
  %99 = add nsw i32 %98, 1
  store i32 %99, i32* %7, align 4
  br label %100

100:                                              ; preds = %97, %90
  br label %101

101:                                              ; preds = %100
  %102 = load i32, i32* %6, align 4
  %103 = add nsw i32 %102, 1
  store i32 %103, i32* %6, align 4
  br label %86

104:                                              ; preds = %86
  %105 = load i32*, i32** %4, align 8
  %106 = load i32, i32* %5, align 4
  %107 = sext i32 %106 to i64
  %108 = getelementptr inbounds i32, i32* %105, i64 %107
  %109 = load i32, i32* %108, align 4
  %110 = icmp eq i32 %109, 0
  br i1 %110, label %111, label %123

111:                                              ; preds = %104
  %112 = load i32*, i32** %3, align 8
  %113 = load i32, i32* %5, align 4
  %114 = sext i32 %113 to i64
  %115 = getelementptr inbounds i32, i32* %112, i64 %114
  %116 = load i32, i32* %115, align 4
  %117 = call i32 (i8*, ...) @printf(i8* getelementptr inbounds ([3 x i8], [3 x i8]* @.str.1, i64 0, i64 0), i32 %116)
  %118 = load i32, i32* %7, align 4
  %119 = icmp sgt i32 %118, 1
  br i1 %119, label %120, label %122

120:                                              ; preds = %111
  %121 = call i32 (i8*, ...) @printf(i8* getelementptr inbounds ([2 x i8], [2 x i8]* @.str.2, i64 0, i64 0))
  br label %122

122:                                              ; preds = %120, %111
  br label %123

123:                                              ; preds = %122, %104
  store i32 0, i32* %7, align 4
  br label %124

124:                                              ; preds = %123
  %125 = load i32, i32* %5, align 4
  %126 = add nsw i32 %125, 1
  store i32 %126, i32* %5, align 4
  br label %80

127:                                              ; preds = %80
  ret i32 0
}

declare dso_local i32 @__isoc99_scanf(i8*, ...) #1

; Function Attrs: nounwind
declare dso_local noalias i8* @malloc(i64) #2

declare dso_local i32 @printf(i8*, ...) #1


!llvm.module.flags = !{!0}
!llvm.ident = !{!1}

!0 = !{i32 1, !"wchar_size", i32 4}
!1 = !{!"clang version 10.0.0-4ubuntu1 "}
